Archive member included to satisfy reference by file (symbol)

/home/mukesh/Desktop/project/mini-os/toolchain/i686-elf/lib/gcc/i686-elf/11.2.0/libgcc.a(_udivdi3.o)
                              /home/mukesh/Desktop/project/mini-os/build/kernel/c/stdio.obj (__udivdi3)
/home/mukesh/Desktop/project/mini-os/toolchain/i686-elf/lib/gcc/i686-elf/11.2.0/libgcc.a(_umoddi3.o)
                              /home/mukesh/Desktop/project/mini-os/build/kernel/c/stdio.obj (__umoddi3)

Memory Configuration

Name             Origin             Length             Attributes
*default*        0x0000000000000000 0xffffffffffffffff

Linker script and memory map

LOAD /home/mukesh/Desktop/project/mini-os/build/kernel/asm/x86.obj
LOAD /home/mukesh/Desktop/project/mini-os/build/kernel/c/main.obj
LOAD /home/mukesh/Desktop/project/mini-os/build/kernel/c/memory.obj
LOAD /home/mukesh/Desktop/project/mini-os/build/kernel/c/stdio.obj
LOAD /home/mukesh/Desktop/project/mini-os/toolchain/i686-elf/lib/gcc/i686-elf/11.2.0/libgcc.a
                0x0000000000100000                phys = 0x100000
                0x0000000000100000                . = phys

.entry          0x0000000000100000       0x44
                0x0000000000100000                __entry_start = .
 *(.entry)
 .entry         0x0000000000100000       0x44 /home/mukesh/Desktop/project/mini-os/build/kernel/c/main.obj
                0x0000000000100000                start

.text           0x0000000000100050      0xc20
                0x0000000000100050                __text_start = .
 *(.text)
 .text          0x0000000000100050       0x14 /home/mukesh/Desktop/project/mini-os/build/kernel/asm/x86.obj
                0x0000000000100050                x86_outb
                0x000000000010005b                x86_inb
 .text          0x0000000000100064        0x0 /home/mukesh/Desktop/project/mini-os/build/kernel/c/main.obj
 .text          0x0000000000100064       0xf5 /home/mukesh/Desktop/project/mini-os/build/kernel/c/memory.obj
                0x0000000000100064                memcpy
                0x00000000001000b6                memset
                0x00000000001000f9                memcmp
 .text          0x0000000000100159      0x891 /home/mukesh/Desktop/project/mini-os/build/kernel/c/stdio.obj
                0x0000000000100159                putchr
                0x0000000000100188                putcolor
                0x00000000001001ba                getchr
                0x00000000001001dc                getcolor
                0x0000000000100201                setcursor
                0x0000000000100272                clrscr
                0x0000000000100300                scrollback
                0x00000000001003ee                putc
                0x00000000001004fb                puts
                0x000000000010052a                printf_unsigned
                0x00000000001005e3                printf_signed
                0x0000000000100640                printf
                0x0000000000100951                print_buffer
 *fill*         0x00000000001009ea        0x6 
 .text          0x00000000001009f0      0x12a /home/mukesh/Desktop/project/mini-os/toolchain/i686-elf/lib/gcc/i686-elf/11.2.0/libgcc.a(_udivdi3.o)
                0x00000000001009f0                __udivdi3
 *fill*         0x0000000000100b1a        0x6 
 .text          0x0000000000100b20      0x150 /home/mukesh/Desktop/project/mini-os/toolchain/i686-elf/lib/gcc/i686-elf/11.2.0/libgcc.a(_umoddi3.o)
                0x0000000000100b20                __umoddi3

.data           0x0000000000100c70        0x4
                0x0000000000100c70                __data_start = .
 *(.data)
 .data          0x0000000000100c70        0x0 /home/mukesh/Desktop/project/mini-os/build/kernel/c/main.obj
 .data          0x0000000000100c70        0x0 /home/mukesh/Desktop/project/mini-os/build/kernel/c/memory.obj
 .data          0x0000000000100c70        0x4 /home/mukesh/Desktop/project/mini-os/build/kernel/c/stdio.obj
                0x0000000000100c70                g_ScreenBuffer
 .data          0x0000000000100c74        0x0 /home/mukesh/Desktop/project/mini-os/toolchain/i686-elf/lib/gcc/i686-elf/11.2.0/libgcc.a(_udivdi3.o)
 .data          0x0000000000100c74        0x0 /home/mukesh/Desktop/project/mini-os/toolchain/i686-elf/lib/gcc/i686-elf/11.2.0/libgcc.a(_umoddi3.o)

.rodata         0x0000000000100c74       0xd6
                0x0000000000100c74                __rodata_start = .
 *(.rodata)
 .rodata        0x0000000000100c74       0x1c /home/mukesh/Desktop/project/mini-os/build/kernel/c/main.obj
 .rodata        0x0000000000100c90       0xba /home/mukesh/Desktop/project/mini-os/build/kernel/c/stdio.obj
                0x0000000000100c90                SCREEN_WIDTH
                0x0000000000100c94                SCREEN_HEIGHT
                0x0000000000100c98                DEFAULT_COLOR
                0x0000000000100c9c                g_HexChars

.eh_frame       0x0000000000100d4c       0xd8
 .eh_frame      0x0000000000100d4c       0x64 /home/mukesh/Desktop/project/mini-os/toolchain/i686-elf/lib/gcc/i686-elf/11.2.0/libgcc.a(_udivdi3.o)
 .eh_frame      0x0000000000100db0       0x74 /home/mukesh/Desktop/project/mini-os/toolchain/i686-elf/lib/gcc/i686-elf/11.2.0/libgcc.a(_umoddi3.o)

.bss            0x0000000000100e24        0x8
                0x0000000000100e24                __bss_start = .
 *(.bss)
 .bss           0x0000000000100e24        0x0 /home/mukesh/Desktop/project/mini-os/build/kernel/c/main.obj
 .bss           0x0000000000100e24        0x0 /home/mukesh/Desktop/project/mini-os/build/kernel/c/memory.obj
 .bss           0x0000000000100e24        0x8 /home/mukesh/Desktop/project/mini-os/build/kernel/c/stdio.obj
                0x0000000000100e24                g_ScreenX
                0x0000000000100e28                g_ScreenY
 .bss           0x0000000000100e2c        0x0 /home/mukesh/Desktop/project/mini-os/toolchain/i686-elf/lib/gcc/i686-elf/11.2.0/libgcc.a(_udivdi3.o)
 .bss           0x0000000000100e2c        0x0 /home/mukesh/Desktop/project/mini-os/toolchain/i686-elf/lib/gcc/i686-elf/11.2.0/libgcc.a(_umoddi3.o)
                0x0000000000100e2c                __end = .
OUTPUT(/home/mukesh/Desktop/project/mini-os/build/kernel.bin binary)

.debug_info     0x0000000000000000      0xebe
 .debug_info    0x0000000000000000      0x11a /home/mukesh/Desktop/project/mini-os/build/kernel/c/main.obj
 .debug_info    0x000000000000011a      0x1e8 /home/mukesh/Desktop/project/mini-os/build/kernel/c/memory.obj
 .debug_info    0x0000000000000302      0x54d /home/mukesh/Desktop/project/mini-os/build/kernel/c/stdio.obj
 .debug_info    0x000000000000084f      0x32c /home/mukesh/Desktop/project/mini-os/toolchain/i686-elf/lib/gcc/i686-elf/11.2.0/libgcc.a(_udivdi3.o)
 .debug_info    0x0000000000000b7b      0x343 /home/mukesh/Desktop/project/mini-os/toolchain/i686-elf/lib/gcc/i686-elf/11.2.0/libgcc.a(_umoddi3.o)

.debug_abbrev   0x0000000000000000      0x68e
 .debug_abbrev  0x0000000000000000       0xea /home/mukesh/Desktop/project/mini-os/build/kernel/c/main.obj
 .debug_abbrev  0x00000000000000ea       0xe2 /home/mukesh/Desktop/project/mini-os/build/kernel/c/memory.obj
 .debug_abbrev  0x00000000000001cc      0x1f6 /home/mukesh/Desktop/project/mini-os/build/kernel/c/stdio.obj
 .debug_abbrev  0x00000000000003c2      0x15b /home/mukesh/Desktop/project/mini-os/toolchain/i686-elf/lib/gcc/i686-elf/11.2.0/libgcc.a(_udivdi3.o)
 .debug_abbrev  0x000000000000051d      0x171 /home/mukesh/Desktop/project/mini-os/toolchain/i686-elf/lib/gcc/i686-elf/11.2.0/libgcc.a(_umoddi3.o)

.debug_aranges  0x0000000000000000       0xa0
 .debug_aranges
                0x0000000000000000       0x20 /home/mukesh/Desktop/project/mini-os/build/kernel/c/main.obj
 .debug_aranges
                0x0000000000000020       0x20 /home/mukesh/Desktop/project/mini-os/build/kernel/c/memory.obj
 .debug_aranges
                0x0000000000000040       0x20 /home/mukesh/Desktop/project/mini-os/build/kernel/c/stdio.obj
 .debug_aranges
                0x0000000000000060       0x20 /home/mukesh/Desktop/project/mini-os/toolchain/i686-elf/lib/gcc/i686-elf/11.2.0/libgcc.a(_udivdi3.o)
 .debug_aranges
                0x0000000000000080       0x20 /home/mukesh/Desktop/project/mini-os/toolchain/i686-elf/lib/gcc/i686-elf/11.2.0/libgcc.a(_umoddi3.o)

.debug_rnglists
                0x0000000000000000       0x5d
 .debug_rnglists
                0x0000000000000000       0x13 /home/mukesh/Desktop/project/mini-os/build/kernel/c/main.obj
 .debug_rnglists
                0x0000000000000013       0x2a /home/mukesh/Desktop/project/mini-os/toolchain/i686-elf/lib/gcc/i686-elf/11.2.0/libgcc.a(_udivdi3.o)
 .debug_rnglists
                0x000000000000003d       0x20 /home/mukesh/Desktop/project/mini-os/toolchain/i686-elf/lib/gcc/i686-elf/11.2.0/libgcc.a(_umoddi3.o)

.debug_line     0x0000000000000000      0x85a
 .debug_line    0x0000000000000000       0x66 /home/mukesh/Desktop/project/mini-os/build/kernel/c/main.obj
 .debug_line    0x0000000000000066       0xe8 /home/mukesh/Desktop/project/mini-os/build/kernel/c/memory.obj
 .debug_line    0x000000000000014e      0x3be /home/mukesh/Desktop/project/mini-os/build/kernel/c/stdio.obj
 .debug_line    0x000000000000050c      0x179 /home/mukesh/Desktop/project/mini-os/toolchain/i686-elf/lib/gcc/i686-elf/11.2.0/libgcc.a(_udivdi3.o)
 .debug_line    0x0000000000000685      0x1d5 /home/mukesh/Desktop/project/mini-os/toolchain/i686-elf/lib/gcc/i686-elf/11.2.0/libgcc.a(_umoddi3.o)

.debug_str      0x0000000000000000      0x855
 .debug_str     0x0000000000000000      0x11c /home/mukesh/Desktop/project/mini-os/build/kernel/c/main.obj
 .debug_str     0x000000000000011c      0x125 /home/mukesh/Desktop/project/mini-os/build/kernel/c/memory.obj
 .debug_str     0x0000000000000241      0x24e /home/mukesh/Desktop/project/mini-os/build/kernel/c/stdio.obj
 .debug_str     0x000000000000048f      0x1e3 /home/mukesh/Desktop/project/mini-os/toolchain/i686-elf/lib/gcc/i686-elf/11.2.0/libgcc.a(_udivdi3.o)
 .debug_str     0x0000000000000672      0x1e3 /home/mukesh/Desktop/project/mini-os/toolchain/i686-elf/lib/gcc/i686-elf/11.2.0/libgcc.a(_umoddi3.o)

.debug_line_str
                0x0000000000000000      0x4e9
 .debug_line_str
                0x0000000000000000       0xeb /home/mukesh/Desktop/project/mini-os/build/kernel/c/main.obj
 .debug_line_str
                0x00000000000000eb       0xe0 /home/mukesh/Desktop/project/mini-os/build/kernel/c/memory.obj
 .debug_line_str
                0x00000000000001cb       0xec /home/mukesh/Desktop/project/mini-os/build/kernel/c/stdio.obj
 .debug_line_str
                0x00000000000002b7      0x119 /home/mukesh/Desktop/project/mini-os/toolchain/i686-elf/lib/gcc/i686-elf/11.2.0/libgcc.a(_udivdi3.o)
 .debug_line_str
                0x00000000000003d0      0x119 /home/mukesh/Desktop/project/mini-os/toolchain/i686-elf/lib/gcc/i686-elf/11.2.0/libgcc.a(_umoddi3.o)

.comment        0x0000000000000000       0x5f
 .comment       0x0000000000000000       0x13 /home/mukesh/Desktop/project/mini-os/build/kernel/c/main.obj
 .comment       0x0000000000000013       0x13 /home/mukesh/Desktop/project/mini-os/build/kernel/c/memory.obj
 .comment       0x0000000000000026       0x13 /home/mukesh/Desktop/project/mini-os/build/kernel/c/stdio.obj
 .comment       0x0000000000000039       0x13 /home/mukesh/Desktop/project/mini-os/toolchain/i686-elf/lib/gcc/i686-elf/11.2.0/libgcc.a(_udivdi3.o)
 .comment       0x000000000000004c       0x13 /home/mukesh/Desktop/project/mini-os/toolchain/i686-elf/lib/gcc/i686-elf/11.2.0/libgcc.a(_umoddi3.o)

.debug_frame    0x0000000000000000      0x260
 .debug_frame   0x0000000000000000       0x2c /home/mukesh/Desktop/project/mini-os/build/kernel/c/main.obj
 .debug_frame   0x000000000000002c       0x74 /home/mukesh/Desktop/project/mini-os/build/kernel/c/memory.obj
 .debug_frame   0x00000000000000a0      0x1c0 /home/mukesh/Desktop/project/mini-os/build/kernel/c/stdio.obj

.debug_loclists
                0x0000000000000000      0x9a0
 .debug_loclists
                0x0000000000000000      0x50b /home/mukesh/Desktop/project/mini-os/toolchain/i686-elf/lib/gcc/i686-elf/11.2.0/libgcc.a(_udivdi3.o)
 .debug_loclists
                0x000000000000050b      0x495 /home/mukesh/Desktop/project/mini-os/toolchain/i686-elf/lib/gcc/i686-elf/11.2.0/libgcc.a(_umoddi3.o)
